; Function Attrs: nounwind uwtable
define dso_local range(i64 5, 10485765) i64 @varchartypmodin(ptr noundef readonly captures(none) %0) local_unnamed_addr #0 {
  %2 = getelementptr inbounds nuw i8, ptr %0, i64 32
  %3 = load i64, ptr %2, align 8
  %4 = inttoptr i64 %3 to ptr
  %5 = tail call ptr @pg_detoast_datum(ptr noundef %4) #13
  %6 = tail call fastcc i32 @anychar_typmodin(ptr noundef %5, ptr noundef nonnull @__func__.varchar)
  %7 = zext nneg i32 %6 to i64
  ret i64 %7
}